; Function Attrs: mustprogress nofree norecurse nosync nounwind willreturn memory(read, inaccessiblemem: none) uwtable
define dso_local noundef i64 @_ZNK4llvm9StringRef17rfind_insensitiveEcm(ptr noundef nonnull readonly align 8 captures(none) dereferenceable(16) %0, i8 noundef signext %1, i64 noundef %2) local_unnamed_addr #0 align 2 {
  %4 = getelementptr inbounds nuw i8, ptr %0, i64 8
  %5 = load i64, ptr %4, align 8
  %.sroa.speculated = tail call i64 @llvm.umin.i64(i64 %5, i64 %2)
  %6 = load ptr, ptr %0, align 8
  %7 = add i8 %1, -65
  %8 = icmp ult i8 %7, 26
  %9 = add nuw nsw i8 %1, 32
  %.0.i7 = select i1 %8, i8 %9, i8 %1
  br label %10

10:                                               ; preds = %11, %3
  %.0 = phi i64 [ %.sroa.speculated, %3 ], [ %12, %11 ]
  %.not = icmp eq i64 %.0, 0
  br i1 %.not, label %19, label %11

11:                                               ; preds = %10
  %12 = add i64 %.0, -1
  %13 = getelementptr inbounds i8, ptr %6, i64 %12
  %14 = load i8, ptr %13, align 1
  %15 = add i8 %14, -65
  %16 = icmp ult i8 %15, 26
  %17 = add nuw nsw i8 %14, 32
  %.0.i = select i1 %16, i8 %17, i8 %14
  %18 = icmp eq i8 %.0.i, %.0.i7
  br i1 %18, label %19, label %10, !llvm.loop !17

19:                                               ; preds = %10, %11
  %.06 = phi i64 [ %12, %11 ], [ -1, %10 ]
  ret i64 %.06
}